target datalayout = "e-m:e-p270:32:32-p271:32:32-p272:64:64-i64:64-i128:128-f80:128-n8:16:32:64-S128"
target triple = "x86_64-pc-linux-gnu"

%struct.__ncnn_allocator_t = type { ptr, ptr, ptr }
%"class.ncnn::Mat" = type { ptr, ptr, i64, i32, ptr, i32, i32, i32, i32, i32, i64 }

; Function Attrs: mustprogress uwtable
define hidden ptr @ncnn_mat_create_external_3d_elem(i32 noundef %0, i32 noundef %1, i32 noundef %2, ptr noundef %3, i64 noundef %4, i32 noundef %5, ptr noundef %6) #1 personality ptr @__gxx_personality_v0 {
  %8 = alloca i64, align 8
  %9 = alloca i32, align 4
  %10 = alloca ptr, align 8
  %11 = alloca i32, align 4
  %12 = alloca i32, align 4
  %13 = alloca i32, align 4
  %14 = alloca ptr, align 8
  %15 = alloca i64, align 8
  %16 = alloca i32, align 4
  %17 = alloca ptr, align 8
  %18 = alloca i32, align 4
  %19 = alloca i32, align 4
  %20 = alloca i32, align 4
  %21 = alloca ptr, align 8
  %22 = alloca i64, align 8
  %23 = alloca i32, align 4
  %24 = alloca ptr, align 8
  %25 = alloca ptr, align 8
  %26 = alloca i32, align 4
  store i32 %0, ptr %18, align 4
  store i32 %1, ptr %19, align 4
  store i32 %2, ptr %20, align 4
  store ptr %3, ptr %21, align 8
  store i64 %4, ptr %22, align 8
  store i32 %5, ptr %23, align 4
  store ptr %6, ptr %24, align 8
  %27 = call noalias noundef nonnull ptr @_Znwm(i64 noundef 72) #13
  %28 = load i32, ptr %18, align 4
  %29 = load i32, ptr %19, align 4
  %30 = load i32, ptr %20, align 4
  %31 = load ptr, ptr %21, align 8
  %32 = load i64, ptr %22, align 8
  %33 = load i32, ptr %23, align 4
  %34 = load ptr, ptr %24, align 8
  %35 = icmp ne ptr %34, null
  br i1 %35, label %36, label %40

36:                                               ; preds = %7
  %37 = load ptr, ptr %24, align 8
  %38 = getelementptr inbounds nuw %struct.__ncnn_allocator_t, ptr %37, i32 0, i32 0
  %39 = load ptr, ptr %38, align 8
  br label %41

40:                                               ; preds = %7
  br label %41

41:                                               ; preds = %40, %36
  %42 = phi ptr [ %39, %36 ], [ null, %40 ]
  store ptr %27, ptr %10, align 8
  store i32 %28, ptr %11, align 4
  store i32 %29, ptr %12, align 4
  store i32 %30, ptr %13, align 4
  store ptr %31, ptr %14, align 8
  store i64 %32, ptr %15, align 8
  store i32 %33, ptr %16, align 4
  store ptr %42, ptr %17, align 8
  %43 = load ptr, ptr %10, align 8
  %44 = load ptr, ptr %14, align 8
  store ptr %44, ptr %43, align 8
  %45 = getelementptr inbounds nuw %"class.ncnn::Mat", ptr %43, i32 0, i32 1
  store ptr null, ptr %45, align 8
  %46 = getelementptr inbounds nuw %"class.ncnn::Mat", ptr %43, i32 0, i32 2
  %47 = load i64, ptr %15, align 8
  store i64 %47, ptr %46, align 8
  %48 = getelementptr inbounds nuw %"class.ncnn::Mat", ptr %43, i32 0, i32 3
  %49 = load i32, ptr %16, align 4
  store i32 %49, ptr %48, align 8
  %50 = getelementptr inbounds nuw %"class.ncnn::Mat", ptr %43, i32 0, i32 4
  %51 = load ptr, ptr %17, align 8
  store ptr %51, ptr %50, align 8
  %52 = getelementptr inbounds nuw %"class.ncnn::Mat", ptr %43, i32 0, i32 5
  store i32 3, ptr %52, align 8
  %53 = getelementptr inbounds nuw %"class.ncnn::Mat", ptr %43, i32 0, i32 6
  %54 = load i32, ptr %11, align 4
  store i32 %54, ptr %53, align 4
  %55 = getelementptr inbounds nuw %"class.ncnn::Mat", ptr %43, i32 0, i32 7
  %56 = load i32, ptr %12, align 4
  store i32 %56, ptr %55, align 8
  %57 = getelementptr inbounds nuw %"class.ncnn::Mat", ptr %43, i32 0, i32 8
  store i32 1, ptr %57, align 4
  %58 = getelementptr inbounds nuw %"class.ncnn::Mat", ptr %43, i32 0, i32 9
  %59 = load i32, ptr %13, align 4
  store i32 %59, ptr %58, align 8
  %60 = getelementptr inbounds nuw %"class.ncnn::Mat", ptr %43, i32 0, i32 6
  %61 = load i32, ptr %60, align 4
  %62 = sext i32 %61 to i64
  %63 = getelementptr inbounds nuw %"class.ncnn::Mat", ptr %43, i32 0, i32 7
  %64 = load i32, ptr %63, align 8
  %65 = sext i32 %64 to i64
  %66 = mul i64 %62, %65
  %67 = getelementptr inbounds nuw %"class.ncnn::Mat", ptr %43, i32 0, i32 2
  %68 = load i64, ptr %67, align 8
  %69 = mul i64 %66, %68
  store i64 %69, ptr %8, align 8
  store i32 16, ptr %9, align 4
  %70 = load i64, ptr %8, align 8
  %71 = load i32, ptr %9, align 4
  %72 = sext i32 %71 to i64
  %73 = add i64 %70, %72
  %74 = sub i64 %73, 1
  %75 = load i32, ptr %9, align 4
  %76 = sub nsw i32 0, %75
  %77 = sext i32 %76 to i64
  %78 = and i64 %74, %77
  %79 = getelementptr inbounds nuw %"class.ncnn::Mat", ptr %43, i32 0, i32 2
  %80 = load i64, ptr %79, align 8
  %81 = udiv i64 %78, %80
  %82 = getelementptr inbounds nuw %"class.ncnn::Mat", ptr %43, i32 0, i32 10
  store i64 %81, ptr %82, align 8
  br label %83

83:                                               ; preds = %41
  ret ptr %27

84:                                               ; No predecessors!
  %85 = landingpad { ptr, i32 }
          cleanup
  %86 = extractvalue { ptr, i32 } %85, 0
  store ptr %86, ptr %25, align 8
  %87 = extractvalue { ptr, i32 } %85, 1
  store i32 %87, ptr %26, align 4
  call void @_ZdlPvm(ptr noundef %27, i64 noundef 72) #14
  br label %88

88:                                               ; preds = %84
  %89 = load ptr, ptr %25, align 8
  %90 = load i32, ptr %26, align 4
  %91 = insertvalue { ptr, i32 } poison, ptr %89, 0
  %92 = insertvalue { ptr, i32 } %91, i32 %90, 1
  resume { ptr, i32 } %92
}