; Function Attrs: mustprogress uwtable
define hidden noalias noundef nonnull ptr @ncnn_mat_create_external_3d_elem(i32 noundef %0, i32 noundef %1, i32 noundef %2, ptr noundef %3, i64 noundef %4, i32 noundef %5, ptr noundef readonly %6) local_unnamed_addr #1 personality ptr @__gxx_personality_v0 {
  %8 = tail call noalias noundef nonnull dereferenceable(72) ptr @_Znwm(i64 noundef 72) #24
  %.not = icmp eq ptr %6, null
  br i1 %.not, label %11, label %9

9:                                                ; preds = %7
  %10 = load ptr, ptr %6, align 8
  br label %11

11:                                               ; preds = %7, %9
  %12 = phi ptr [ %10, %9 ], [ null, %7 ]
  store ptr %3, ptr %8, align 8
  %13 = getelementptr inbounds nuw i8, ptr %8, i64 8
  store ptr null, ptr %13, align 8
  %14 = getelementptr inbounds nuw i8, ptr %8, i64 16
  store i64 %4, ptr %14, align 8
  %15 = getelementptr inbounds nuw i8, ptr %8, i64 24
  store i32 %5, ptr %15, align 8
  %16 = getelementptr inbounds nuw i8, ptr %8, i64 32
  store ptr %12, ptr %16, align 8
  %17 = getelementptr inbounds nuw i8, ptr %8, i64 40
  store i32 3, ptr %17, align 8
  %18 = getelementptr inbounds nuw i8, ptr %8, i64 44
  store i32 %0, ptr %18, align 4
  %19 = getelementptr inbounds nuw i8, ptr %8, i64 48
  store i32 %1, ptr %19, align 8
  %20 = getelementptr inbounds nuw i8, ptr %8, i64 52
  store i32 1, ptr %20, align 4
  %21 = getelementptr inbounds nuw i8, ptr %8, i64 56
  store i32 %2, ptr %21, align 8
  %22 = sext i32 %0 to i64
  %23 = sext i32 %1 to i64
  %24 = mul nsw i64 %23, %22
  %25 = mul i64 %24, %4
  %26 = add i64 %25, 15
  %27 = and i64 %26, -16
  %28 = udiv i64 %27, %4
  %29 = getelementptr inbounds nuw i8, ptr %8, i64 64
  store i64 %28, ptr %29, align 8
  ret ptr %8
}